; Function Attrs: mustprogress uwtable
define dso_local noundef ptr @_ZN24btCollisionWorldImporter19createCompoundShapeEv(ptr nocapture noundef nonnull align 8 dereferenceable(1336) %this) unnamed_addr #3 align 2 personality ptr @__gxx_personality_v0 {
entry:
  %call.i = tail call noundef ptr @_Z22btAlignedAllocInternalmi(i64 noundef 128, i32 noundef 16)
  invoke void @_ZN15btCompoundShapeC1Ebi(ptr noundef nonnull align 8 dereferenceable(128) %call.i, i1 noundef zeroext true, i32 noundef 0)
          to label %invoke.cont unwind label %lpad

invoke.cont:                                      ; preds = %entry
  %m_size.i.i = getelementptr inbounds i8, ptr %this, i64 28
  %0 = load i32, ptr %m_size.i.i, align 4
  %m_capacity.i.i = getelementptr inbounds i8, ptr %this, i64 32
  %1 = load i32, ptr %m_capacity.i.i, align 8
  %cmp.i = icmp eq i32 %0, %1
  br i1 %cmp.i, label %if.then.i, label %_ZN20btAlignedObjectArrayIP16btCollisionShapeE9push_backERKS1_.exit

if.then.i:                                        ; preds = %invoke.cont
  %tobool.not.i.i = icmp eq i32 %0, 0
  %mul.i.i = shl nsw i32 %0, 1
  %cond.i.i = select i1 %tobool.not.i.i, i32 1, i32 %mul.i.i
  %cmp.i.i = icmp slt i32 %0, %cond.i.i
  br i1 %cmp.i.i, label %if.then.i.i, label %_ZN20btAlignedObjectArrayIP16btCollisionShapeE9push_backERKS1_.exit

if.then.i.i:                                      ; preds = %if.then.i
  %tobool.not.i.i.i = icmp eq i32 %cond.i.i, 0
  br i1 %tobool.not.i.i.i, label %_ZN20btAlignedObjectArrayIP16btCollisionShapeE8allocateEi.exit.i.i, label %if.then.i.i.i

if.then.i.i.i:                                    ; preds = %if.then.i.i
  %conv.i.i.i.i = sext i32 %cond.i.i to i64
  %mul.i.i.i.i = shl nsw i64 %conv.i.i.i.i, 3
  %call.i.i.i.i = tail call noundef ptr @_Z22btAlignedAllocInternalmi(i64 noundef %mul.i.i.i.i, i32 noundef 16)
  %.pre.i = load i32, ptr %m_size.i.i, align 4
  br label %_ZN20btAlignedObjectArrayIP16btCollisionShapeE8allocateEi.exit.i.i

_ZN20btAlignedObjectArrayIP16btCollisionShapeE8allocateEi.exit.i.i: ; preds = %if.then.i.i.i, %if.then.i.i
  %2 = phi i32 [ %.pre.i, %if.then.i.i.i ], [ %0, %if.then.i.i ]
  %retval.0.i.i.i = phi ptr [ %call.i.i.i.i, %if.then.i.i.i ], [ null, %if.then.i.i ]
  %cmp4.i.i.i = icmp sgt i32 %2, 0
  br i1 %cmp4.i.i.i, label %for.body.lr.ph.i.i.i, label %_ZNK20btAlignedObjectArrayIP16btCollisionShapeE4copyEiiPS1_.exit.i.i

for.body.lr.ph.i.i.i:                             ; preds = %_ZN20btAlignedObjectArrayIP16btCollisionShapeE8allocateEi.exit.i.i
  %m_data.i.i.i = getelementptr inbounds i8, ptr %this, i64 40
  %wide.trip.count.i.i.i = zext nneg i32 %2 to i64
  br label %for.body.i.i.i

for.body.i.i.i:                                   ; preds = %for.body.i.i.i, %for.body.lr.ph.i.i.i
  %indvars.iv.i.i.i = phi i64 [ 0, %for.body.lr.ph.i.i.i ], [ %indvars.iv.next.i.i.i, %for.body.i.i.i ]
  %arrayidx.i.i.i = getelementptr inbounds ptr, ptr %retval.0.i.i.i, i64 %indvars.iv.i.i.i
  %3 = load ptr, ptr %m_data.i.i.i, align 8
  %arrayidx3.i.i.i = getelementptr inbounds ptr, ptr %3, i64 %indvars.iv.i.i.i
  %4 = load ptr, ptr %arrayidx3.i.i.i, align 8
  store ptr %4, ptr %arrayidx.i.i.i, align 8
  %indvars.iv.next.i.i.i = add nuw nsw i64 %indvars.iv.i.i.i, 1
  %exitcond.not.i.i.i = icmp eq i64 %indvars.iv.next.i.i.i, %wide.trip.count.i.i.i
  br i1 %exitcond.not.i.i.i, label %_ZNK20btAlignedObjectArrayIP16btCollisionShapeE4copyEiiPS1_.exit.i.i, label %for.body.i.i.i, !llvm.loop !26

_ZNK20btAlignedObjectArrayIP16btCollisionShapeE4copyEiiPS1_.exit.i.i: ; preds = %for.body.i.i.i, %_ZN20btAlignedObjectArrayIP16btCollisionShapeE8allocateEi.exit.i.i
  %m_data.i5.i.i = getelementptr inbounds i8, ptr %this, i64 40
  %5 = load ptr, ptr %m_data.i5.i.i, align 8
  %tobool.not.i6.i.i = icmp eq ptr %5, null
  br i1 %tobool.not.i6.i.i, label %_ZN20btAlignedObjectArrayIP16btCollisionShapeE10deallocateEv.exit.i.i, label %if.then.i7.i.i

if.then.i7.i.i:                                   ; preds = %_ZNK20btAlignedObjectArrayIP16btCollisionShapeE4copyEiiPS1_.exit.i.i
  %m_ownsMemory.i.i.i = getelementptr inbounds i8, ptr %this, i64 48
  %6 = load i8, ptr %m_ownsMemory.i.i.i, align 8
  %7 = and i8 %6, 1
  %tobool2.not.i.i.i = icmp eq i8 %7, 0
  br i1 %tobool2.not.i.i.i, label %_ZN20btAlignedObjectArrayIP16btCollisionShapeE10deallocateEv.exit.i.i, label %if.then3.i.i.i

if.then3.i.i.i:                                   ; preds = %if.then.i7.i.i
  tail call void @_Z21btAlignedFreeInternalPv(ptr noundef nonnull %5)
  br label %_ZN20btAlignedObjectArrayIP16btCollisionShapeE10deallocateEv.exit.i.i

_ZN20btAlignedObjectArrayIP16btCollisionShapeE10deallocateEv.exit.i.i: ; preds = %if.then3.i.i.i, %if.then.i7.i.i, %_ZNK20btAlignedObjectArrayIP16btCollisionShapeE4copyEiiPS1_.exit.i.i
  %m_ownsMemory.i.i = getelementptr inbounds i8, ptr %this, i64 48
  store i8 1, ptr %m_ownsMemory.i.i, align 8
  store ptr %retval.0.i.i.i, ptr %m_data.i5.i.i, align 8
  store i32 %cond.i.i, ptr %m_capacity.i.i, align 8
  %.pre2.i = load i32, ptr %m_size.i.i, align 4
  br label %_ZN20btAlignedObjectArrayIP16btCollisionShapeE9push_backERKS1_.exit

_ZN20btAlignedObjectArrayIP16btCollisionShapeE9push_backERKS1_.exit: ; preds = %invoke.cont, %if.then.i, %_ZN20btAlignedObjectArrayIP16btCollisionShapeE10deallocateEv.exit.i.i
  %8 = phi i32 [ %.pre2.i, %_ZN20btAlignedObjectArrayIP16btCollisionShapeE10deallocateEv.exit.i.i ], [ %0, %if.then.i ], [ %0, %invoke.cont ]
  %m_data.i = getelementptr inbounds i8, ptr %this, i64 40
  %9 = load ptr, ptr %m_data.i, align 8
  %idxprom.i = sext i32 %8 to i64
  %arrayidx.i = getelementptr inbounds ptr, ptr %9, i64 %idxprom.i
  store ptr %call.i, ptr %arrayidx.i, align 8
  %10 = load i32, ptr %m_size.i.i, align 4
  %inc.i = add nsw i32 %10, 1
  store i32 %inc.i, ptr %m_size.i.i, align 4
  ret ptr %call.i

lpad:                                             ; preds = %entry
  %11 = landingpad { ptr, i32 }
          cleanup
  invoke void @_Z21btAlignedFreeInternalPv(ptr noundef %call.i)
          to label %_ZN15btCompoundShapedlEPv.exit unwind label %terminate.lpad.i

terminate.lpad.i:                                 ; preds = %lpad
  %12 = landingpad { ptr, i32 }
          catch ptr null
  %13 = extractvalue { ptr, i32 } %12, 0
  tail call void @__clang_call_terminate(ptr %13) #22
  unreachable

_ZN15btCompoundShapedlEPv.exit:                   ; preds = %lpad
  resume { ptr, i32 } %11
}